target datalayout = "e-m:e-p270:32:32-p271:32:32-p272:64:64-i64:64-i128:128-f80:128-n8:16:32:64-S128"
target triple = "x86_64-pc-linux-gnu"

%struct.ASN1_ITEM_st = type { i8, i64, ptr, i64, ptr, i64, ptr }

; Function Attrs: nounwind uwtable
define internal i32 @uint32_i2c(ptr noundef %0, ptr noundef %1, ptr noundef %2, ptr noundef %3) #0 {
  %5 = alloca i32, align 4
  %6 = alloca ptr, align 8
  %7 = alloca ptr, align 8
  %8 = alloca ptr, align 8
  %9 = alloca ptr, align 8
  %10 = alloca i32, align 4
  %11 = alloca i32, align 4
  %12 = alloca ptr, align 8
  %13 = alloca i32, align 4
  store ptr %0, ptr %6, align 8, !tbaa !3
  store ptr %1, ptr %7, align 8, !tbaa !16
  store ptr %2, ptr %8, align 8, !tbaa !12
  store ptr %3, ptr %9, align 8, !tbaa !8
  call void @llvm.lifetime.start.p0(i64 4, ptr %10) #4
  call void @llvm.lifetime.start.p0(i64 4, ptr %11) #4
  store i32 0, ptr %11, align 4, !tbaa !14
  call void @llvm.lifetime.start.p0(i64 8, ptr %12) #4
  %14 = load ptr, ptr %6, align 8, !tbaa !3
  %15 = load ptr, ptr %14, align 8, !tbaa !10
  store ptr %15, ptr %12, align 8, !tbaa !16
  %16 = load ptr, ptr %12, align 8, !tbaa !16
  call void @llvm.memcpy.p0.p0.i64(ptr align 4 %10, ptr align 1 %16, i64 4, i1 false)
  %17 = load ptr, ptr %9, align 8, !tbaa !8
  %18 = getelementptr inbounds nuw %struct.ASN1_ITEM_st, ptr %17, i32 0, i32 5
  %19 = load i64, ptr %18, align 8, !tbaa !20
  %20 = and i64 %19, 1
  %21 = icmp eq i64 %20, 1
  br i1 %21, label %22, label %26

22:                                               ; preds = %4
  %23 = load i32, ptr %10, align 4, !tbaa !14
  %24 = icmp eq i32 %23, 0
  br i1 %24, label %25, label %26

25:                                               ; preds = %22
  store i32 -1, ptr %5, align 4
  store i32 1, ptr %13, align 4
  br label %44

26:                                               ; preds = %22, %4
  %27 = load ptr, ptr %9, align 8, !tbaa !8
  %28 = getelementptr inbounds nuw %struct.ASN1_ITEM_st, ptr %27, i32 0, i32 5
  %29 = load i64, ptr %28, align 8, !tbaa !20
  %30 = and i64 %29, 2
  %31 = icmp eq i64 %30, 2
  br i1 %31, label %32, label %38

32:                                               ; preds = %26
  %33 = load i32, ptr %10, align 4, !tbaa !14
  %34 = icmp slt i32 %33, 0
  br i1 %34, label %35, label %38

35:                                               ; preds = %32
  %36 = load i32, ptr %10, align 4, !tbaa !14
  %37 = sub i32 0, %36
  store i32 %37, ptr %10, align 4, !tbaa !14
  store i32 1, ptr %11, align 4, !tbaa !14
  br label %38

38:                                               ; preds = %35, %32, %26
  %39 = load ptr, ptr %7, align 8, !tbaa !16
  %40 = load i32, ptr %10, align 4, !tbaa !14
  %41 = zext i32 %40 to i64
  %42 = load i32, ptr %11, align 4, !tbaa !14
  %43 = call i32 @ossl_i2c_uint64_int(ptr noundef %39, i64 noundef %41, i32 noundef %42)
  store i32 %43, ptr %5, align 4
  store i32 1, ptr %13, align 4
  br label %44

44:                                               ; preds = %38, %25
  call void @llvm.lifetime.end.p0(i64 8, ptr %12) #4
  call void @llvm.lifetime.end.p0(i64 4, ptr %11) #4
  call void @llvm.lifetime.end.p0(i64 4, ptr %10) #4
  %45 = load i32, ptr %5, align 4
  ret i32 %45
}