; Function Attrs: nounwind uwtable
define internal i32 @uint32_i2c(ptr noundef readonly captures(none) %0, ptr noundef %1, ptr readnone captures(none) %2, ptr noundef readonly captures(none) %3) #1 {
  %5 = load ptr, ptr %0, align 8, !tbaa !3
  %.0.copyload = load i32, ptr %5, align 1
  %6 = getelementptr inbounds nuw i8, ptr %3, i64 40
  %7 = load i64, ptr %6, align 8, !tbaa !16
  %8 = and i64 %7, 1
  %9 = icmp ne i64 %8, 0
  %10 = icmp eq i32 %.0.copyload, 0
  %or.cond = select i1 %9, i1 %10, i1 false
  br i1 %or.cond, label %18, label %11

11:                                               ; preds = %4
  %12 = and i64 %7, 2
  %13 = icmp ne i64 %12, 0
  %14 = icmp slt i32 %.0.copyload, 0
  %or.cond3 = select i1 %13, i1 %14, i1 false
  %15 = sub i32 0, %.0.copyload
  %spec.select = select i1 %or.cond3, i32 %15, i32 %.0.copyload
  %spec.select15 = zext i1 %or.cond3 to i32
  %16 = zext i32 %spec.select to i64
  %17 = tail call i32 @ossl_i2c_uint64_int(ptr noundef %1, i64 noundef %16, i32 noundef %spec.select15) #5
  br label %18

18:                                               ; preds = %4, %11
  %.0 = phi i32 [ %17, %11 ], [ -1, %4 ]
  ret i32 %.0
}